; Function Attrs: nounwind sspstrong uwtable
define internal noundef i32 @vhdx_co_check(ptr noundef readonly captures(none) %bs, ptr noundef %result, i32 %fix) #0 {
entry:
  %opaque = getelementptr inbounds nuw i8, ptr %bs, i64 24
  %0 = load ptr, ptr %opaque, align 8
  %log_replayed_on_open = getelementptr inbounds nuw i8, ptr %0, i64 584
  %1 = load i8, ptr %log_replayed_on_open, align 8
  %tobool = trunc i8 %1 to i1
  br i1 %tobool, label %if.then, label %if.end

if.then:                                          ; preds = %entry
  %corruptions_fixed = getelementptr inbounds nuw i8, ptr %result, i64 12
  %2 = load i32, ptr %corruptions_fixed, align 4
  %inc = add i32 %2, 1
  store i32 %inc, ptr %corruptions_fixed, align 4
  br label %if.end

if.end:                                           ; preds = %if.then, %entry
  %call = tail call i32 @vhdx_check_bat_entries(ptr noundef nonnull %bs, ptr noundef %result)
  ret i32 0
}